Certificate:
    Data:
        Version: 3 (0x2)
        Serial Number:
            01:fb:ea:ad:02:77:f5:5e:58:2f:e1:0a:06:64:84:1b:e9:72:ac:c3
        Signature Algorithm: sha256WithRSAEncryption
        Issuer: C=AU, ST=Some-State, O=Internet Widgits Pty Ltd
        Validity
            Not Before: Dec  4 20:04:04 2022 GMT
            Not After : Apr  6 20:04:04 3022 GMT
        Subject: C=AU, ST=Some-State, O=Internet Widgits Pty Ltd, CN=foobar
        Subject Public Key Info:
            Public Key Algorithm: rsaEncryption
                Public-Key: (4096 bit)
                Modulus:
                    00:82:44:fa:1c:2a:7d:47:bd:78:a4:41:f7:ed:d8:
                    4d:9a:5f:d0:2a:93:71:06:26:0d:89:42:a6:da:f5:
                    c7:20:ce:47:59:01:23:dd:cd:65:d1:cf:be:4d:79:
                    ed:98:3b:60:fd:6d:5f:35:7f:70:25:aa:08:84:16:
                    87:11:b7:4f:6c:5c:c1:2d:27:a2:79:6b:4f:63:d6:
                    cf:87:d6:a6:d2:ea:1d:4b:8c:aa:d8:06:fc:fe:0b:
                    b5:8e:74:1c:7b:52:b3:33:cc:29:9a:a7:28:a1:3f:
                    ac:40:28:ea:20:ca:4b:71:bc:81:0d:4d:2b:0f:79:
                    04:ff:71:b6:55:f8:4c:ba:2a:ad:bb:61:2c:7f:50:
                    23:52:a8:99:58:9e:54:8c:08:11:73:06:3a:7d:a3:
                    2e:d2:c2:1c:a2:73:b7:50:6e:4d:25:d6:cc:a0:b1:
                    a4:c2:43:38:ee:81:ce:9c:59:4b:0f:cd:56:a3:c0:
                    15:26:76:64:3d:0c:1e:32:c6:cf:ed:f6:f3:bf:13:
                    da:d7:f1:e7:80:29:ab:a8:dc:cc:e0:0b:21:26:f1:
                    83:5d:57:ba:00:a2:f7:1f:9f:fa:c6:9a:71:43:34:
                    a2:ba:da:0e:37:07:20:31:2d:b6:af:33:6c:80:5f:
                    31:58:a3:41:89:0b:2e:b1:6f:a0:3d:47:96:fe:45:
                    d1:df:4f:49:ee:71:29:44:71:e3:e1:36:36:0b:03:
                    a5:0a:98:c4:ad:19:8d:b9:db:83:c5:88:d9:47:ba:
                    08:6b:57:c7:18:c0:b0:da:d7:59:a9:41:56:48:d2:
                    fe:cb:fa:44:64:c2:da:fe:69:97:61:39:d2:29:7d:
                    fd:7b:62:55:b4:b3:fb:b0:9e:38:a6:0d:92:02:5a:
                    68:b7:a9:b8:36:ee:0f:00:b8:4a:30:4e:0b:c5:bd:
                    3f:6e:0f:fe:72:f7:6a:1c:e6:6d:02:c8:f6:65:5a:
                    d9:8c:c6:29:95:c5:18:18:ea:ce:bb:cb:e0:c1:19:
                    d8:97:8a:9d:29:6d:e4:17:e0:b7:33:18:44:8e:83:
                    ed:61:51:31:0a:9f:4d:06:45:19:2e:7d:47:cb:13:
                    21:67:dc:8e:56:1c:a5:ff:25:00:96:22:fd:fa:59:
                    59:13:ea:12:df:66:ee:80:36:8f:0c:e4:d6:6a:b5:
                    b3:0f:f8:fd:60:61:01:5b:bd:ec:ec:f2:39:f8:c8:
                    2b:59:49:7a:d4:a5:15:7f:1a:67:53:57:22:96:b4:
                    aa:d4:0c:0f:81:ee:bf:98:2e:27:9b:af:26:05:e7:
                    70:34:d4:35:f9:ab:67:9d:08:49:57:d0:14:8a:aa:
                    ae:bd:26:3d:c2:22:7f:45:21:09:5a:6d:1a:e9:c7:
                    84:bb:0f
                Exponent: 65537 (0x10001)
        X509v3 extensions:
            X509v3 Basic Constraints: 
                CA:FALSE
            X509v3 Key Usage: 
                Digital Signature, Non Repudiation, Key Encipherment
            X509v3 Subject Alternative Name: 
                DNS:foobar
            X509v3 Subject Key Identifier: 
                8B:A1:3B:85:FC:7F:A3:9E:48:6B:B2:79:3B:75:AC:D2:E4:96:A4:C4
            X509v3 Authority Key Identifier: 
                F0:56:6E:2D:CF:D1:87:16:EA:67:42:1E:66:EE:53:64:CB:1B:9B:30
    Signature Algorithm: sha256WithRSAEncryption
    Signature Value:
        42:60:a2:2f:ed:33:a6:e7:23:45:ed:18:66:7c:85:a2:00:ac:
        d6:67:b5:a2:cc:c3:74:dd:68:64:a4:5d:11:d8:8a:59:a8:51:
        98:9d:64:f7:36:e1:08:d3:f0:f5:e3:01:13:55:db:94:58:6d:
        88:2d:3e:24:59:73:a2:f5:a3:05:32:d9:0d:d9:fd:8f:17:17:
        f1:7b:39:2b:66:1e:1e:c0:c7:39:ac:2b:79:50:8e:1f:1c:89:
        cf:0d:f4:3b:b1:d3:e3:06:c1:a0:63:de:fe:38:11:cf:23:d5:
        cc:0c:af:6f:9e:18:85:6d:17:82:82:d9:5e:8d:87:8b:27:e6:
        33:df:14:ac:ce:54:59:42:f6:75:79:31:88:77:ce:1b:c2:23:
        5e:81:c2:6b:2d:28:76:11:3f:02:e4:35:d5:50:82:46:2c:60:
        73:3f:77:72:e8:4b:c1:4f:9e:6b:e1:5f:f2:94:99:96:47:a4:
        e3:89:1e:bc:e4:41:81:b7:c6:67:ee:b2:ac:89:1b:e0:64:dc:
        f3:7d:ab:34:f6:f8:a1:80:8f:41:ce:20:d1:3f:3c:80:7b:21:
        4d:bf:53:b1:c6:cd:82:9b:1a:38:8e:19:20:60:15:05:b2:ec:
        11:10:25:1d:d8:3d:ab:a5:47:84:fb:23:db:e0:c0:96:d4:02:
        e9:d0:7e:d2:bd:04:f0:b1:6d:5b:80:dd:dd:1e:0f:07:3f:a0:
        22:87:f1:6b:38:6e:5c:65:5b:19:24:de:69:70:91:bb:5f:e2:
        e7:d1:d3:5b:6b:35:5e:34:4b:2a:90:36:c8:0a:26:b9:f2:b2:
        ec:ce:f4:ae:b6:7b:c9:66:eb:6f:24:1d:10:ab:07:45:47:dd:
        30:6d:1f:fc:49:28:e2:01:3c:02:5f:1a:32:27:fe:d0:7e:23:
        09:4b:1b:43:96:5a:19:55:01:6c:87:81:5c:d2:a9:07:b3:34:
        5e:7f:5d:04:1d:78:9a:de:92:75:69:84:45:79:9c:b4:8a:89:
        f9:31:af:9d:e7:16:02:36:df:55:07:0c:4f:69:ef:63:36:ea:
        ea:81:c9:b7:b5:b2:af:d1:98:51:3b:09:db:94:39:82:09:b0:
        d6:ff:78:3c:34:47:bf:8e:6c:ea:35:40:39:bc:df:49:4e:fd:
        cb:e9:d6:c8:22:e9:f8:9c:50:1a:fb:ea:bf:3e:a2:c6:61:97:
        83:c3:41:71:16:3c:54:02:58:45:db:47:b0:f5:1e:95:cf:95:
        fc:7e:c5:e0:e8:ad:f5:fe:f1:f6:49:51:f3:6b:fc:29:b7:d4:
        49:cd:a0:14:ae:1b:c9:5b:67:6b:b0:85:52:31:b2:66:2a:fb:
        16:f3:3c:90:51:90:ac:04
-----BEGIN CERTIFICATE-----
MIIFmDCCA4CgAwIBAgIUAfvqrQJ39V5YL+EKBmSEG+lyrMMwDQYJKoZIhvcNAQEL
BQAwRTELMAkGA1UEBhMCQVUxEzARBgNVBAgMClNvbWUtU3RhdGUxITAfBgNVBAoM
GEludGVybmV0IFdpZGdpdHMgUHR5IEx0ZDAgFw0yMjEyMDQyMDA0MDRaGA8zMDIy
MDQwNjIwMDQwNFowVjELMAkGA1UEBhMCQVUxEzARBgNVBAgMClNvbWUtU3RhdGUx
ITAfBgNVBAoMGEludGVybmV0IFdpZGdpdHMgUHR5IEx0ZDEPMA0GA1UEAwwGZm9v
YmFyMIICIjANBgkqhkiG9w0BAQEFAAOCAg8AMIICCgKCAgEAgkT6HCp9R714pEH3
7dhNml/QKpNxBiYNiUKm2vXHIM5HWQEj3c1l0c++TXntmDtg/W1fNX9wJaoIhBaH
EbdPbFzBLSeieWtPY9bPh9am0uodS4yq2Ab8/gu1jnQce1KzM8wpmqcooT+sQCjq
IMpLcbyBDU0rD3kE/3G2VfhMuiqtu2Esf1AjUqiZWJ5UjAgRcwY6faMu0sIconO3
UG5NJdbMoLGkwkM47oHOnFlLD81Wo8AVJnZkPQweMsbP7fbzvxPa1/HngCmrqNzM
4AshJvGDXVe6AKL3H5/6xppxQzSiutoONwcgMS22rzNsgF8xWKNBiQsusW+gPUeW
/kXR309J7nEpRHHj4TY2CwOlCpjErRmNuduDxYjZR7oIa1fHGMCw2tdZqUFWSNL+
y/pEZMLa/mmXYTnSKX39e2JVtLP7sJ44pg2SAlpot6m4Nu4PALhKME4Lxb0/bg/+
cvdqHOZtAsj2ZVrZjMYplcUYGOrOu8vgwRnYl4qdKW3kF+C3MxhEjoPtYVExCp9N
BkUZLn1HyxMhZ9yOVhyl/yUAliL9+llZE+oS32bugDaPDOTWarWzD/j9YGEBW73s
7PI5+MgrWUl61KUVfxpnU1cilrSq1AwPge6/mC4nm68mBedwNNQ1+atnnQhJV9AU
iqquvSY9wiJ/RSEJWm0a6ceEuw8CAwEAAaNtMGswCQYDVR0TBAIwADALBgNVHQ8E
BAMCBeAwEQYDVR0RBAowCIIGZm9vYmFyMB0GA1UdDgQWBBSLoTuF/H+jnkhrsnk7
dazS5JakxDAfBgNVHSMEGDAWgBTwVm4tz9GHFupnQh5m7lNkyxubMDANBgkqhkiG
9w0BAQsFAAOCAgEAQmCiL+0zpucjRe0YZnyFogCs1me1oszDdN1oZKRdEdiKWahR
mJ1k9zbhCNPw9eMBE1XblFhtiC0+JFlzovWjBTLZDdn9jxcX8Xs5K2YeHsDHOawr
eVCOHxyJzw30O7HT4wbBoGPe/jgRzyPVzAyvb54YhW0XgoLZXo2HiyfmM98UrM5U
WUL2dXkxiHfOG8IjXoHCay0odhE/AuQ11VCCRixgcz93cuhLwU+ea+Ff8pSZlkek
44kevORBgbfGZ+6yrIkb4GTc832rNPb4oYCPQc4g0T88gHshTb9TscbNgpsaOI4Z
IGAVBbLsERAlHdg9q6VHhPsj2+DAltQC6dB+0r0E8LFtW4Dd3R4PBz+gIofxazhu
XGVbGSTeaXCRu1/i59HTW2s1XjRLKpA2yAomufKy7M70rrZ7yWbrbyQdEKsHRUfd
MG0f/Eko4gE8Al8aMif+0H4jCUsbQ5ZaGVUBbIeBXNKpB7M0Xn9dBB14mt6SdWmE
RXmctIqJ+TGvnecWAjbfVQcMT2nvYzbq6oHJt7Wyr9GYUTsJ25Q5ggmw1v94PDRH
v45s6jVAObzfSU79y+nWyCLp+JxQGvvqvz6ixmGXg8NBcRY8VAJYRdtHsPUelc+V
/H7F4Oit9f7x9klR82v8KbfUSc2gFK4byVtna7CFUjGyZir7FvM8kFGQrAQ=
-----END CERTIFICATE-----
