Certificate:
    Data:
        Version: 3 (0x2)
        Serial Number:
            27:ca:09:db:1f:bc:9a:c4:ba:6a:86:97:eb:68:c0:26:cb:8c:75:58
        Signature Algorithm: sha256WithRSAEncryption
        Issuer: C=AU, ST=Some-State, O=Internet Widgits Pty Ltd
        Validity
            Not Before: Sep  6 03:05:21 2022 GMT
            Not After : Sep  6 03:05:21 2023 GMT
        Subject: C=AU, ST=Some-State, O=Internet Widgits Pty Ltd, CN=localhost
        Subject Public Key Info:
            Public Key Algorithm: rsaEncryption
                Public-Key: (4096 bit)
                Modulus:
                    00:e0:86:bc:79:59:4b:28:1d:4c:e7:39:f4:2e:ca:
                    27:86:09:ff:74:0c:9e:4e:18:77:a0:8d:08:07:76:
                    41:6b:4c:eb:06:1f:a1:fa:2f:19:dc:7b:86:7b:ce:
                    77:92:ab:6e:39:80:72:22:3f:b6:96:6b:11:d7:23:
                    58:23:48:78:a4:b0:35:c9:2c:25:b7:83:ea:77:bb:
                    62:06:8d:97:0b:86:48:67:dd:36:12:5f:77:86:35:
                    c0:03:b0:a4:a6:bc:df:d6:44:23:30:52:d7:d5:34:
                    8b:8e:b3:ea:04:2d:2a:ff:c0:d0:b6:77:50:f6:d9:
                    2f:76:a0:2d:62:49:f6:c8:96:a7:66:7f:74:2d:6c:
                    55:3b:15:ef:b7:81:38:c3:56:90:aa:3c:28:02:d6:
                    20:36:78:a5:1e:76:85:45:93:15:aa:e6:60:86:a4:
                    30:18:06:0f:76:e5:2e:19:ab:8f:af:d0:e9:d4:4c:
                    1f:f2:01:b0:d5:41:95:29:ea:4c:88:9b:d1:1e:38:
                    2a:dc:b0:9b:c5:bb:95:3e:84:12:04:cf:cf:cd:36:
                    7e:4b:13:3a:c7:0c:be:9a:f8:a7:2a:f8:5b:a0:04:
                    3f:5a:1a:36:59:86:f8:fe:a4:b1:7b:18:0f:79:89:
                    a7:8a:d7:61:1d:94:f2:85:31:59:74:e2:cb:0d:43:
                    82:18:2b:6b:63:5b:66:bb:af:6f:77:c5:a0:e8:9f:
                    b7:2d:dd:47:29:07:7c:5c:79:22:56:9a:1c:5d:42:
                    9c:3c:b4:9a:71:3b:2c:4b:ef:f9:e1:63:9f:98:1c:
                    c9:a2:fa:79:64:fe:0f:c2:39:43:d6:ad:36:ef:64:
                    ab:48:9f:cf:fe:56:93:42:a4:3d:6e:98:3d:7a:6e:
                    fd:b5:c2:85:58:2d:d5:bb:fd:bb:49:46:a4:7c:de:
                    01:e0:b4:6b:12:82:32:6d:eb:5d:c6:aa:4c:d2:b9:
                    75:d8:e1:76:97:23:b8:9f:6c:7a:aa:b6:56:c8:59:
                    f8:d9:2d:7f:fd:e9:03:34:ba:97:71:ed:98:cc:3d:
                    e4:2d:a6:b2:ea:25:88:b5:e3:d9:ae:5c:36:a5:64:
                    18:84:79:8d:f1:0f:3c:22:95:cf:9b:ae:46:6a:24:
                    3e:ba:56:cd:a5:d2:bd:96:ea:9a:20:3a:40:b7:3f:
                    13:11:04:5d:84:c2:34:c8:72:50:df:c3:17:cb:ea:
                    87:72:25:13:9f:85:ae:5a:b4:69:12:59:4d:0c:7d:
                    2a:fa:33:8c:75:a6:5c:fd:ea:21:cf:75:8c:71:4a:
                    84:a8:d5:86:48:c4:80:1d:fb:e9:7c:ae:01:2f:17:
                    10:92:77:8b:0b:87:f3:a0:f9:de:e9:a2:38:38:56:
                    b8:4f:d9
                Exponent: 65537 (0x10001)
        X509v3 extensions:
            X509v3 Basic Constraints: 
                CA:FALSE
            X509v3 Key Usage: 
                Digital Signature, Non Repudiation, Key Encipherment
            X509v3 Subject Alternative Name: 
                DNS:localhost
            X509v3 Subject Key Identifier: 
                A5:55:C8:66:55:A5:24:B2:BE:07:9D:FC:23:5B:19:14:F8:53:2C:FB
            X509v3 Authority Key Identifier: 
                97:16:44:35:B5:BA:EF:87:FB:F5:36:B2:46:0A:2C:FB:49:77:68:08
    Signature Algorithm: sha256WithRSAEncryption
    Signature Value:
        b7:30:57:11:cc:ad:b2:53:b8:53:44:32:86:0d:41:e9:34:02:
        b3:d9:17:fd:23:66:8c:ce:37:18:d7:ca:34:e6:dd:7f:68:e8:
        05:b3:7f:99:0e:7e:c7:c9:d5:0f:42:65:d0:a9:bd:99:51:fb:
        c1:1b:76:ea:5c:63:29:69:9a:1d:50:22:51:ae:6a:e8:f0:c7:
        60:09:13:18:90:af:44:38:42:d4:02:a1:80:54:1a:8a:3d:51:
        41:88:9a:29:3d:db:0a:b3:98:17:c9:60:a6:aa:a6:9b:32:3b:
        63:8c:7b:3d:5f:be:e0:b5:d0:9a:e5:f7:f3:31:33:cf:e1:cd:
        2a:42:d7:99:ae:51:fb:83:ad:c9:16:dc:8f:a7:b6:67:6f:5f:
        92:a6:f0:38:12:d2:c0:45:df:15:08:d7:fa:f1:f7:20:44:24:
        e0:0a:a0:3b:12:d4:0f:f3:4a:8a:ec:6d:f7:30:74:cb:9e:43:
        34:25:2c:c6:1b:0c:8a:bd:7d:83:8d:c0:ef:d9:44:ab:7e:e6:
        78:49:2c:0d:7b:cc:10:cf:7a:74:07:ac:a6:99:cf:6a:91:32:
        41:4e:98:40:a5:a6:99:be:27:35:b3:b5:ad:80:6a:4f:1b:7d:
        49:22:80:f5:60:72:3e:61:af:b4:5f:82:99:5b:eb:6a:55:87:
        14:6e:91:af:23:46:ee:81:cf:a1:b8:c8:a3:6a:51:91:c9:53:
        ea:26:2e:62:54:ed:0e:8a:35:7b:95:58:0e:73:c5:52:03:d2:
        eb:f1:fe:f1:c9:af:f4:bd:33:e3:b4:7e:28:59:1a:44:bf:58:
        15:15:57:0d:50:25:91:47:a2:46:54:40:83:76:95:56:5c:0d:
        bc:5d:34:a0:64:ca:2c:cb:fc:19:4d:90:2c:7f:a3:2c:a2:bd:
        70:7b:0c:b7:2d:d0:8a:4f:34:3e:2e:b8:81:32:3f:69:7c:f4:
        9c:bc:99:2a:76:90:7a:d3:fe:e3:17:1c:dd:0e:3b:fa:06:e5:
        18:03:36:9c:f8:63:0b:ec:bf:16:18:f9:a5:95:6d:ec:3b:cf:
        c4:4f:19:41:44:e5:e8:43:ba:cf:a5:d5:68:5d:33:9b:73:02:
        11:ad:10:e6:c7:e3:a9:66:61:21:6a:11:ed:c4:ac:6b:56:95:
        4b:1e:14:5d:42:e9:4b:4c:71:06:42:48:9f:95:4d:e6:7e:fd:
        0d:a0:a0:94:dd:78:1d:88:fd:20:9c:1b:94:f8:a0:97:fd:22:
        3e:c4:4d:79:f7:27:4a:7a:38:bd:50:8e:e0:24:f6:e0:58:ef:
        99:00:ea:86:d1:0e:2f:e1:1d:9d:04:bd:90:79:60:c5:18:f0:
        85:3a:e1:01:5f:bf:ab:f6
-----BEGIN CERTIFICATE-----
MIIFnDCCA4SgAwIBAgIUJ8oJ2x+8msS6aoaX62jAJsuMdVgwDQYJKoZIhvcNAQEL
BQAwRTELMAkGA1UEBhMCQVUxEzARBgNVBAgMClNvbWUtU3RhdGUxITAfBgNVBAoM
GEludGVybmV0IFdpZGdpdHMgUHR5IEx0ZDAeFw0yMjA5MDYwMzA1MjFaFw0yMzA5
MDYwMzA1MjFaMFkxCzAJBgNVBAYTAkFVMRMwEQYDVQQIDApTb21lLVN0YXRlMSEw
HwYDVQQKDBhJbnRlcm5ldCBXaWRnaXRzIFB0eSBMdGQxEjAQBgNVBAMMCWxvY2Fs
aG9zdDCCAiIwDQYJKoZIhvcNAQEBBQADggIPADCCAgoCggIBAOCGvHlZSygdTOc5
9C7KJ4YJ/3QMnk4Yd6CNCAd2QWtM6wYfofovGdx7hnvOd5KrbjmAciI/tpZrEdcj
WCNIeKSwNcksJbeD6ne7YgaNlwuGSGfdNhJfd4Y1wAOwpKa839ZEIzBS19U0i46z
6gQtKv/A0LZ3UPbZL3agLWJJ9siWp2Z/dC1sVTsV77eBOMNWkKo8KALWIDZ4pR52
hUWTFarmYIakMBgGD3blLhmrj6/Q6dRMH/IBsNVBlSnqTIib0R44Ktywm8W7lT6E
EgTPz802fksTOscMvpr4pyr4W6AEP1oaNlmG+P6ksXsYD3mJp4rXYR2U8oUxWXTi
yw1Dghgra2NbZruvb3fFoOifty3dRykHfFx5IlaaHF1CnDy0mnE7LEvv+eFjn5gc
yaL6eWT+D8I5Q9atNu9kq0ifz/5Wk0KkPW6YPXpu/bXChVgt1bv9u0lGpHzeAeC0
axKCMm3rXcaqTNK5ddjhdpcjuJ9seqq2VshZ+Nktf/3pAzS6l3HtmMw95C2msuol
iLXj2a5cNqVkGIR5jfEPPCKVz5uuRmokPrpWzaXSvZbqmiA6QLc/ExEEXYTCNMhy
UN/DF8vqh3IlE5+Frlq0aRJZTQx9KvozjHWmXP3qIc91jHFKhKjVhkjEgB376Xyu
AS8XEJJ3iwuH86D53umiODhWuE/ZAgMBAAGjcDBuMAkGA1UdEwQCMAAwCwYDVR0P
BAQDAgXgMBQGA1UdEQQNMAuCCWxvY2FsaG9zdDAdBgNVHQ4EFgQUpVXIZlWlJLK+
B538I1sZFPhTLPswHwYDVR0jBBgwFoAUlxZENbW674f79TayRgos+0l3aAgwDQYJ
KoZIhvcNAQELBQADggIBALcwVxHMrbJTuFNEMoYNQek0ArPZF/0jZozONxjXyjTm
3X9o6AWzf5kOfsfJ1Q9CZdCpvZlR+8EbdupcYylpmh1QIlGuaujwx2AJExiQr0Q4
QtQCoYBUGoo9UUGImik92wqzmBfJYKaqppsyO2OMez1fvuC10Jrl9/MxM8/hzSpC
15muUfuDrckW3I+ntmdvX5Km8DgS0sBF3xUI1/rx9yBEJOAKoDsS1A/zSorsbfcw
dMueQzQlLMYbDIq9fYONwO/ZRKt+5nhJLA17zBDPenQHrKaZz2qRMkFOmEClppm+
JzWzta2Aak8bfUkigPVgcj5hr7Rfgplb62pVhxRuka8jRu6Bz6G4yKNqUZHJU+om
LmJU7Q6KNXuVWA5zxVID0uvx/vHJr/S9M+O0fihZGkS/WBUVVw1QJZFHokZUQIN2
lVZcDbxdNKBkyizL/BlNkCx/oyyivXB7DLct0IpPND4uuIEyP2l89Jy8mSp2kHrT
/uMXHN0OO/oG5RgDNpz4YwvsvxYY+aWVbew7z8RPGUFE5ehDus+l1WhdM5tzAhGt
EObH46lmYSFqEe3ErGtWlUseFF1C6UtMcQZCSJ+VTeZ+/Q2goJTdeB2I/SCcG5T4
oJf9Ij7ETXn3J0p6OL1QjuAk9uBY75kA6obRDi/hHZ0EvZB5YMUY8IU64QFfv6v2
-----END CERTIFICATE-----
