Certificate:
    Data:
        Version: 3 (0x2)
        Serial Number:
            1c:20:98:df:df:50:2c:73:e7:e1:90:2c:d6:40:9e:a7:1a:a0:00:95
        Signature Algorithm: sha256WithRSAEncryption
        Issuer: C=AU, ST=Some-State, O=Internet Widgits Pty Ltd
        Validity
            Not Before: Sep  6 03:18:43 2022 GMT
            Not After : Sep  6 03:18:43 2023 GMT
        Subject: C=AU, ST=Some-State, O=Internet Widgits Pty Ltd, CN=foobar
        Subject Public Key Info:
            Public Key Algorithm: rsaEncryption
                Public-Key: (4096 bit)
                Modulus:
                    00:c0:06:88:ff:4d:a4:2b:52:dc:66:a5:17:ad:93:
                    ef:46:1a:76:5c:3f:69:c5:a1:a6:93:e4:9a:03:a2:
                    e8:e2:a1:28:e7:2a:f7:41:b1:3d:15:87:89:12:a9:
                    a1:18:be:70:b6:01:e3:6d:cf:af:11:04:8e:88:8b:
                    c3:ac:52:dc:b9:62:11:01:60:26:84:46:1c:91:86:
                    4e:cf:eb:b7:18:ed:ad:bf:fe:69:0d:55:20:60:73:
                    fe:df:2a:a1:ef:97:e6:c4:08:91:20:f2:e5:7f:8a:
                    2d:2e:3b:c4:90:58:24:8f:d7:d6:9f:de:88:2b:79:
                    c3:39:cf:6f:1a:20:39:2c:f5:82:71:4b:7f:a4:29:
                    b0:da:b2:c3:32:1f:a4:73:0f:16:37:bc:19:b1:52:
                    54:a0:8d:6e:10:53:a3:94:3c:52:28:c7:7c:62:c8:
                    52:cb:4c:ab:bd:6d:ba:93:74:7b:a2:22:c3:6a:61:
                    eb:91:bd:86:df:d0:4f:2f:61:3a:b2:2f:f1:3b:91:
                    b6:c0:46:3d:28:0f:94:77:9f:af:9e:c4:d4:1f:1f:
                    cd:6e:c2:73:7f:9f:7c:39:49:25:12:91:cd:da:85:
                    58:c3:3a:5a:e6:4a:5c:27:1a:bc:f9:77:60:70:47:
                    4b:c3:7b:a9:57:da:0f:a7:36:9a:5f:74:1a:f6:14:
                    34:2b:75:91:dc:18:43:76:fc:41:65:8c:fc:d2:5b:
                    81:1b:6f:1b:d3:ed:58:98:fd:5a:7b:43:fb:dd:e0:
                    49:f5:56:d2:e2:ec:37:60:6e:97:89:f8:41:04:7c:
                    04:9b:de:ab:75:37:da:d1:77:86:63:ec:ee:bf:45:
                    0f:50:16:f7:63:c0:cc:52:c9:09:ce:98:07:4c:e8:
                    1e:31:b2:53:fc:58:b3:09:a5:0f:fa:9b:88:10:77:
                    a1:df:93:4a:5a:50:7e:b4:09:f1:5f:2d:4a:1b:da:
                    f5:07:62:03:3c:da:38:d3:78:89:08:19:fe:65:39:
                    f2:a9:a2:cd:19:6c:49:c9:0e:45:ac:5e:e8:38:54:
                    19:66:c8:ab:7f:e6:96:13:83:52:44:9e:fa:76:f8:
                    f3:3a:fc:3e:05:64:5a:0e:1d:63:b1:d5:0b:6d:59:
                    22:24:b4:22:0a:2c:29:8a:ff:a5:36:ce:00:33:03:
                    29:0b:8c:2f:e1:2f:6a:b7:05:8b:05:34:0c:f8:c0:
                    c6:75:9b:f3:b4:82:42:e9:c7:6e:88:fd:88:a4:61:
                    31:6b:ba:1f:a0:b6:46:4d:c6:a7:59:a0:87:4f:fd:
                    06:ab:f0:4d:29:5a:ab:7a:ac:5d:96:99:4f:3a:a5:
                    95:6b:2f:7f:2f:a8:c6:7b:37:66:4f:b2:2a:e5:77:
                    cd:41:f5
                Exponent: 65537 (0x10001)
        X509v3 extensions:
            X509v3 Basic Constraints: 
                CA:FALSE
            X509v3 Key Usage: 
                Digital Signature, Non Repudiation, Key Encipherment
            X509v3 Subject Alternative Name: 
                DNS:foobar
            X509v3 Subject Key Identifier: 
                5D:88:39:63:39:2A:DD:95:68:BE:FD:9A:53:A4:3C:E2:A8:E7:CD:8D
            X509v3 Authority Key Identifier: 
                97:16:44:35:B5:BA:EF:87:FB:F5:36:B2:46:0A:2C:FB:49:77:68:08
    Signature Algorithm: sha256WithRSAEncryption
    Signature Value:
        36:34:69:72:84:18:c2:35:94:aa:f6:c9:9a:86:bf:0c:1c:2c:
        24:89:7a:9d:32:05:9e:c6:a2:85:5d:29:7e:d3:4c:c6:99:e1:
        4a:9c:2a:0b:ca:0a:ae:7f:45:4c:8d:c0:aa:e2:8d:ea:4a:3f:
        e1:78:46:a5:03:98:78:45:4a:e8:c6:50:69:4e:b9:1e:fe:03:
        5c:59:17:93:e7:42:fa:20:59:39:1c:e6:20:7c:09:c6:ad:22:
        a3:93:02:a1:f0:f2:65:f1:81:22:db:74:6a:e9:d4:4b:3c:2c:
        e9:06:8d:7a:6c:15:74:90:5a:de:71:b2:9d:5d:08:2a:70:3c:
        48:89:83:5b:64:87:9f:1d:5f:d9:5d:7a:3a:53:74:c4:c5:d0:
        04:05:6a:ac:a6:4b:38:85:ae:f0:99:76:91:2e:2a:5c:31:b8:
        5d:8d:3a:19:96:8f:73:54:d9:15:df:45:2e:e1:c9:bc:12:03:
        fa:24:2d:12:82:d0:c6:a3:d6:c1:d6:18:36:f2:76:37:e2:47:
        b1:1e:7b:21:11:b0:97:7e:6d:8f:ca:b0:ce:09:2a:9e:8d:a1:
        9a:58:bb:ec:4c:23:33:2e:c6:02:7e:f0:30:12:ee:50:fb:68:
        c3:09:41:e7:f8:b8:9c:93:a2:07:38:21:28:5b:d4:6a:5a:0b:
        d7:a2:d0:2d:f3:21:24:34:85:c8:e3:99:ae:1d:da:49:de:91:
        88:1d:31:ba:95:ae:b6:5c:1e:3f:e9:61:22:de:38:04:32:ba:
        95:b5:78:5a:cf:dd:f9:92:42:3e:53:07:bc:7f:41:5f:0a:f5:
        0c:70:a3:d9:8e:5e:c4:dc:21:9f:97:a5:2b:f6:90:8f:11:e6:
        ea:20:10:20:bc:4a:28:ce:26:b5:a7:7b:71:1b:97:3d:52:01:
        0c:18:8d:5a:0b:6e:71:c2:20:b9:4c:56:b9:83:17:18:40:63:
        6b:02:95:56:bc:e5:2a:6b:d5:5a:5a:94:6f:93:98:76:b4:c9:
        96:09:8f:50:0f:6c:72:13:e3:85:13:d1:76:ab:4d:cc:3f:1d:
        38:42:11:23:e4:54:8a:f8:89:11:ef:65:b4:d6:e8:4b:cf:03:
        9a:bb:6a:f4:a7:7a:04:cb:20:7a:18:df:bd:4f:60:31:ab:0f:
        4e:09:3b:05:a4:ac:ca:a8:8b:3b:74:8a:19:c5:70:8e:68:69:
        cb:7d:92:c5:e3:5e:6a:a0:aa:6f:28:13:2b:d5:b6:b7:ab:22:
        c5:2f:fa:4d:98:79:e2:b4:60:5e:f9:00:95:d2:74:f7:eb:82:
        ec:07:57:44:0c:11:f6:8d:fd:3a:76:bc:83:e5:30:7e:ef:37:
        78:57:c6:af:6c:d0:f9:73
-----BEGIN CERTIFICATE-----
MIIFljCCA36gAwIBAgIUHCCY399QLHPn4ZAs1kCepxqgAJUwDQYJKoZIhvcNAQEL
BQAwRTELMAkGA1UEBhMCQVUxEzARBgNVBAgMClNvbWUtU3RhdGUxITAfBgNVBAoM
GEludGVybmV0IFdpZGdpdHMgUHR5IEx0ZDAeFw0yMjA5MDYwMzE4NDNaFw0yMzA5
MDYwMzE4NDNaMFYxCzAJBgNVBAYTAkFVMRMwEQYDVQQIDApTb21lLVN0YXRlMSEw
HwYDVQQKDBhJbnRlcm5ldCBXaWRnaXRzIFB0eSBMdGQxDzANBgNVBAMMBmZvb2Jh
cjCCAiIwDQYJKoZIhvcNAQEBBQADggIPADCCAgoCggIBAMAGiP9NpCtS3GalF62T
70Yadlw/acWhppPkmgOi6OKhKOcq90GxPRWHiRKpoRi+cLYB423PrxEEjoiLw6xS
3LliEQFgJoRGHJGGTs/rtxjtrb/+aQ1VIGBz/t8qoe+X5sQIkSDy5X+KLS47xJBY
JI/X1p/eiCt5wznPbxogOSz1gnFLf6QpsNqywzIfpHMPFje8GbFSVKCNbhBTo5Q8
UijHfGLIUstMq71tupN0e6Iiw2ph65G9ht/QTy9hOrIv8TuRtsBGPSgPlHefr57E
1B8fzW7Cc3+ffDlJJRKRzdqFWMM6WuZKXCcavPl3YHBHS8N7qVfaD6c2ml90GvYU
NCt1kdwYQ3b8QWWM/NJbgRtvG9PtWJj9WntD+93gSfVW0uLsN2Bul4n4QQR8BJve
q3U32tF3hmPs7r9FD1AW92PAzFLJCc6YB0zoHjGyU/xYswmlD/qbiBB3od+TSlpQ
frQJ8V8tShva9QdiAzzaONN4iQgZ/mU58qmizRlsSckORaxe6DhUGWbIq3/mlhOD
UkSe+nb48zr8PgVkWg4dY7HVC21ZIiS0IgosKYr/pTbOADMDKQuML+EvarcFiwU0
DPjAxnWb87SCQunHboj9iKRhMWu6H6C2Rk3Gp1mgh0/9BqvwTSlaq3qsXZaZTzql
lWsvfy+oxns3Zk+yKuV3zUH1AgMBAAGjbTBrMAkGA1UdEwQCMAAwCwYDVR0PBAQD
AgXgMBEGA1UdEQQKMAiCBmZvb2JhcjAdBgNVHQ4EFgQUXYg5Yzkq3ZVovv2aU6Q8
4qjnzY0wHwYDVR0jBBgwFoAUlxZENbW674f79TayRgos+0l3aAgwDQYJKoZIhvcN
AQELBQADggIBADY0aXKEGMI1lKr2yZqGvwwcLCSJep0yBZ7GooVdKX7TTMaZ4Uqc
KgvKCq5/RUyNwKrijepKP+F4RqUDmHhFSujGUGlOuR7+A1xZF5PnQvogWTkc5iB8
CcatIqOTAqHw8mXxgSLbdGrp1Es8LOkGjXpsFXSQWt5xsp1dCCpwPEiJg1tkh58d
X9ldejpTdMTF0AQFaqymSziFrvCZdpEuKlwxuF2NOhmWj3NU2RXfRS7hybwSA/ok
LRKC0Maj1sHWGDbydjfiR7EeeyERsJd+bY/KsM4JKp6NoZpYu+xMIzMuxgJ+8DAS
7lD7aMMJQef4uJyTogc4IShb1GpaC9ei0C3zISQ0hcjjma4d2knekYgdMbqVrrZc
Hj/pYSLeOAQyupW1eFrP3fmSQj5TB7x/QV8K9Qxwo9mOXsTcIZ+XpSv2kI8R5uog
ECC8SijOJrWne3Eblz1SAQwYjVoLbnHCILlMVrmDFxhAY2sClVa85Spr1VpalG+T
mHa0yZYJj1APbHIT44UT0XarTcw/HThCESPkVIr4iRHvZbTW6EvPA5q7avSnegTL
IHoY371PYDGrD04JOwWkrMqoizt0ihnFcI5oact9ksXjXmqgqm8oEyvVtrerIsUv
+k2YeeK0YF75AJXSdPfrguwHV0QMEfaN/Tp2vIPlMH7vN3hXxq9s0Plz
-----END CERTIFICATE-----
